target datalayout = "e-m:e-p270:32:32-p271:32:32-p272:64:64-i64:64-i128:128-f80:128-n8:16:32:64-S128"
target triple = "x86_64-pc-linux-gnu"

%class.svector = type { %class.vector.22 }
%class.vector.22 = type { ptr }
%"class.datalog::relation_signature" = type { %"class.datalog::tr_infrastructure<datalog::relation_traits>::signature_base" }
%"class.datalog::tr_infrastructure<datalog::relation_traits>::signature_base" = type { %class.ptr_vector.31 }
%class.ptr_vector.31 = type { %class.vector.32 }
%class.vector.32 = type { ptr }
%"class.datalog::product_relation" = type { %"class.datalog::relation_base.base", i8, %class.ptr_vector.33, %"struct.datalog::rel_spec" }
%"class.datalog::relation_base.base" = type { %"class.datalog::tr_infrastructure<datalog::relation_traits>::base_ancestor.base" }
%"class.datalog::tr_infrastructure<datalog::relation_traits>::base_ancestor.base" = type <{ ptr, ptr, %"class.datalog::relation_signature", i32 }>
%class.ptr_vector.33 = type { %class.vector.34 }
%class.vector.34 = type { ptr }
%"struct.datalog::rel_spec" = type { %class.svector }
%"class.std::ios_base" = type { ptr, i64, i64, i32, i32, i32, ptr, %"struct.std::ios_base::_Words", [8 x %"struct.std::ios_base::_Words"], i32, ptr, %"class.std::locale" }
%"struct.std::ios_base::_Words" = type { ptr, i64 }
%"class.std::locale" = type { ptr }

@.str.2 = private unnamed_addr constant [4 x i8] c"{}\0A\00", align 1
@.str.3 = private unnamed_addr constant [37 x i8] c"Product of the following relations:\0A\00", align 1

; Function Attrs: inlinehint mustprogress nounwind uwtable
define linkonce_odr noundef i32 @_ZStorSt12_Ios_IostateS_(i32 noundef %0, i32 noundef %1) #9 comdat {
  %3 = alloca i32, align 4
  %4 = alloca i32, align 4
  store i32 %0, ptr %3, align 4, !tbaa !562
  store i32 %1, ptr %4, align 4, !tbaa !562
  %5 = load i32, ptr %3, align 4, !tbaa !562
  %6 = load i32, ptr %4, align 4, !tbaa !562
  %7 = or i32 %5, %6
  ret i32 %7
}

; Function Attrs: mustprogress nounwind uwtable
define available_externally noundef i32 @_ZNKSt9basic_iosIcSt11char_traitsIcEE7rdstateEv(ptr noundef nonnull align 8 dereferenceable(264) %0) #6 align 2 {
  %2 = alloca ptr, align 8
  store ptr %0, ptr %2, align 8, !tbaa !560
  %3 = load ptr, ptr %2, align 8
  %4 = getelementptr inbounds nuw %"class.std::ios_base", ptr %3, i32 0, i32 5
  %5 = load i32, ptr %4, align 8, !tbaa !564
  ret i32 %5
}

; Function Attrs: mustprogress nounwind uwtable
define linkonce_odr hidden noundef i64 @_ZNSt11char_traitsIcE6lengthEPKc(ptr noundef %0) #6 comdat align 2 {
  %2 = alloca ptr, align 8
  store ptr %0, ptr %2, align 8, !tbaa !220
  %3 = load ptr, ptr %2, align 8, !tbaa !220
  %4 = call i64 @strlen(ptr noundef %3) #3
  ret i64 %4
}

; Function Attrs: mustprogress uwtable
define available_externally void @_ZNSt9basic_iosIcSt11char_traitsIcEE8setstateESt12_Ios_Iostate(ptr noundef nonnull align 8 dereferenceable(264) %0, i32 noundef %1) #4 align 2 {
  %3 = alloca ptr, align 8
  %4 = alloca i32, align 4
  store ptr %0, ptr %3, align 8, !tbaa !560
  store i32 %1, ptr %4, align 4, !tbaa !562
  %5 = load ptr, ptr %3, align 8
  %6 = call noundef i32 @_ZNKSt9basic_iosIcSt11char_traitsIcEE7rdstateEv(ptr noundef nonnull align 8 dereferenceable(264) %5)
  %7 = load i32, ptr %4, align 4, !tbaa !562
  %8 = call noundef i32 @_ZStorSt12_Ios_IostateS_(i32 noundef %6, i32 noundef %7)
  call void @_ZNSt9basic_iosIcSt11char_traitsIcEE5clearESt12_Ios_Iostate(ptr noundef nonnull align 8 dereferenceable(264) %5, i32 noundef %8)
  ret void
}

; Function Attrs: mustprogress nounwind uwtable
define linkonce_odr hidden noundef nonnull align 8 dereferenceable(8) ptr @_ZNK6vectorIPN7datalog13relation_baseELb0EjEixEj(ptr noundef nonnull align 8 dereferenceable(8) %0, i32 noundef %1) #6 comdat align 2 {
  %3 = alloca ptr, align 8
  %4 = alloca i32, align 4
  store ptr %0, ptr %3, align 8, !tbaa !86
  store i32 %1, ptr %4, align 4, !tbaa !26
  %5 = load ptr, ptr %3, align 8
  %6 = getelementptr inbounds nuw %class.vector.34, ptr %5, i32 0, i32 0
  %7 = load ptr, ptr %6, align 8, !tbaa !90
  %8 = load i32, ptr %4, align 4, !tbaa !26
  %9 = zext i32 %8 to i64
  %10 = getelementptr inbounds nuw ptr, ptr %7, i64 %9
  ret ptr %10
}

; Function Attrs: mustprogress nounwind uwtable
define linkonce_odr hidden noundef i32 @_ZNK6vectorIPN7datalog13relation_baseELb0EjE4sizeEv(ptr noundef nonnull align 8 dereferenceable(8) %0) #6 comdat align 2 {
  %2 = alloca i32, align 4
  %3 = alloca ptr, align 8
  store ptr %0, ptr %3, align 8, !tbaa !86
  %4 = load ptr, ptr %3, align 8
  %5 = getelementptr inbounds nuw %class.vector.34, ptr %4, i32 0, i32 0
  %6 = load ptr, ptr %5, align 8, !tbaa !90
  %7 = icmp eq ptr %6, null
  br i1 %7, label %8, label %9

8:                                                ; preds = %1
  store i32 0, ptr %2, align 4
  br label %14

9:                                                ; preds = %1
  %10 = getelementptr inbounds nuw %class.vector.34, ptr %4, i32 0, i32 0
  %11 = load ptr, ptr %10, align 8, !tbaa !90
  %12 = getelementptr inbounds i32, ptr %11, i64 -1
  %13 = load i32, ptr %12, align 4, !tbaa !26
  store i32 %13, ptr %2, align 4
  br label %14

14:                                               ; preds = %9, %8
  %15 = load i32, ptr %2, align 4
  ret i32 %15
}

; Function Attrs: inlinehint mustprogress uwtable
define available_externally noundef nonnull align 8 dereferenceable(8) ptr @_ZStlsISt11char_traitsIcEERSt13basic_ostreamIcT_ES5_PKc(ptr noundef nonnull align 8 dereferenceable(8) %0, ptr noundef %1) #8 {
  %3 = alloca ptr, align 8
  %4 = alloca ptr, align 8
  store ptr %0, ptr %3, align 8, !tbaa !217
  store ptr %1, ptr %4, align 8, !tbaa !220
  %5 = load ptr, ptr %4, align 8, !tbaa !220
  %6 = icmp ne ptr %5, null
  br i1 %6, label %13, label %7

7:                                                ; preds = %2
  %8 = load ptr, ptr %3, align 8, !tbaa !217
  %9 = load ptr, ptr %8, align 8, !tbaa !12
  %10 = getelementptr i8, ptr %9, i64 -24
  %11 = load i64, ptr %10, align 8
  %12 = getelementptr inbounds i8, ptr %8, i64 %11
  call void @_ZNSt9basic_iosIcSt11char_traitsIcEE8setstateESt12_Ios_Iostate(ptr noundef nonnull align 8 dereferenceable(264) %12, i32 noundef 1)
  br label %19

13:                                               ; preds = %2
  %14 = load ptr, ptr %3, align 8, !tbaa !217
  %15 = load ptr, ptr %4, align 8, !tbaa !220
  %16 = load ptr, ptr %4, align 8, !tbaa !220
  %17 = call noundef i64 @_ZNSt11char_traitsIcE6lengthEPKc(ptr noundef %16)
  %18 = call noundef nonnull align 8 dereferenceable(8) ptr @_ZSt16__ostream_insertIcSt11char_traitsIcEERSt13basic_ostreamIT_T0_ES6_PKS3_l(ptr noundef nonnull align 8 dereferenceable(8) %14, ptr noundef %15, i64 noundef %17)
  br label %19

19:                                               ; preds = %13, %7
  %20 = load ptr, ptr %3, align 8, !tbaa !217
  ret ptr %20
}

; Function Attrs: mustprogress nounwind uwtable
define linkonce_odr hidden noundef zeroext i1 @_ZNK6vectorIPN7datalog13relation_baseELb0EjE5emptyEv(ptr noundef nonnull align 8 dereferenceable(8) %0) #6 comdat align 2 {
  %2 = alloca ptr, align 8
  store ptr %0, ptr %2, align 8, !tbaa !86
  %3 = load ptr, ptr %2, align 8
  %4 = getelementptr inbounds nuw %class.vector.34, ptr %3, i32 0, i32 0
  %5 = load ptr, ptr %4, align 8, !tbaa !90
  %6 = icmp eq ptr %5, null
  br i1 %6, label %13, label %7

7:                                                ; preds = %1
  %8 = getelementptr inbounds nuw %class.vector.34, ptr %3, i32 0, i32 0
  %9 = load ptr, ptr %8, align 8, !tbaa !90
  %10 = getelementptr inbounds i32, ptr %9, i64 -1
  %11 = load i32, ptr %10, align 4, !tbaa !26
  %12 = icmp eq i32 %11, 0
  br label %13

13:                                               ; preds = %7, %1
  %14 = phi i1 [ true, %1 ], [ %12, %7 ]
  ret i1 %14
}

; Function Attrs: mustprogress uwtable
define hidden void @_ZNK7datalog16product_relation7displayERSo(ptr noundef nonnull align 8 dereferenceable(48) %0, ptr noundef nonnull align 8 dereferenceable(8) %1) unnamed_addr #4 align 2 {
  %3 = alloca ptr, align 8
  %4 = alloca ptr, align 8
  %5 = alloca i32, align 4
  store ptr %0, ptr %3, align 8, !tbaa !48
  store ptr %1, ptr %4, align 8, !tbaa !217
  %6 = load ptr, ptr %3, align 8
  %7 = getelementptr inbounds nuw %"class.datalog::product_relation", ptr %6, i32 0, i32 2
  %8 = call noundef zeroext i1 @_ZNK6vectorIPN7datalog13relation_baseELb0EjE5emptyEv(ptr noundef nonnull align 8 dereferenceable(8) %7)
  br i1 %8, label %9, label %12

9:                                                ; preds = %2
  %10 = load ptr, ptr %4, align 8, !tbaa !217
  %11 = call noundef nonnull align 8 dereferenceable(8) ptr @_ZStlsISt11char_traitsIcEERSt13basic_ostreamIcT_ES5_PKc(ptr noundef nonnull align 8 dereferenceable(8) %10, ptr noundef @.str.2)
  br label %33

12:                                               ; preds = %2
  %13 = load ptr, ptr %4, align 8, !tbaa !217
  %14 = call noundef nonnull align 8 dereferenceable(8) ptr @_ZStlsISt11char_traitsIcEERSt13basic_ostreamIcT_ES5_PKc(ptr noundef nonnull align 8 dereferenceable(8) %13, ptr noundef @.str.3)
  call void @llvm.lifetime.start.p0(i64 4, ptr %5) #3
  store i32 0, ptr %5, align 4, !tbaa !26
  br label %15

15:                                               ; preds = %30, %12
  %16 = load i32, ptr %5, align 4, !tbaa !26
  %17 = getelementptr inbounds nuw %"class.datalog::product_relation", ptr %6, i32 0, i32 2
  %18 = call noundef i32 @_ZNK6vectorIPN7datalog13relation_baseELb0EjE4sizeEv(ptr noundef nonnull align 8 dereferenceable(8) %17)
  %19 = icmp ult i32 %16, %18
  br i1 %19, label %21, label %20

20:                                               ; preds = %15
  call void @llvm.lifetime.end.p0(i64 4, ptr %5) #3
  br label %33

21:                                               ; preds = %15
  %22 = getelementptr inbounds nuw %"class.datalog::product_relation", ptr %6, i32 0, i32 2
  %23 = load i32, ptr %5, align 4, !tbaa !26
  %24 = call noundef nonnull align 8 dereferenceable(8) ptr @_ZNK6vectorIPN7datalog13relation_baseELb0EjEixEj(ptr noundef nonnull align 8 dereferenceable(8) %22, i32 noundef %23)
  %25 = load ptr, ptr %24, align 8, !tbaa !52
  %26 = load ptr, ptr %4, align 8, !tbaa !217
  %27 = load ptr, ptr %25, align 8, !tbaa !12
  %28 = getelementptr inbounds ptr, ptr %27, i64 15
  %29 = load ptr, ptr %28, align 8
  call void %29(ptr noundef nonnull align 8 dereferenceable(28) %25, ptr noundef nonnull align 8 dereferenceable(8) %26)
  br label %30

30:                                               ; preds = %21
  %31 = load i32, ptr %5, align 4, !tbaa !26
  %32 = add i32 %31, 1
  store i32 %32, ptr %5, align 4, !tbaa !26
  br label %15, !llvm.loop !219

33:                                               ; preds = %9, %20
  ret void
}