; Function Attrs: mustprogress uwtable
define hidden void @_ZNK7datalog16product_relation7displayERSo(ptr noundef nonnull readonly align 8 captures(none) dereferenceable(48) %0, ptr noundef nonnull align 8 dereferenceable(8) %1) unnamed_addr #3 align 2 {
  %3 = getelementptr inbounds nuw i8, ptr %0, i64 32
  %4 = load ptr, ptr %3, align 8, !tbaa !89
  %5 = icmp eq ptr %4, null
  br i1 %5, label %_ZNK6vectorIPN7datalog13relation_baseELb0EjE5emptyEv.exit.thread, label %_ZNK6vectorIPN7datalog13relation_baseELb0EjE5emptyEv.exit

_ZNK6vectorIPN7datalog13relation_baseELb0EjE5emptyEv.exit: ; preds = %2
  %6 = getelementptr inbounds i8, ptr %4, i64 -4
  %7 = load i32, ptr %6, align 4, !tbaa !39
  %8 = icmp eq i32 %7, 0
  br i1 %8, label %_ZNK6vectorIPN7datalog13relation_baseELb0EjE5emptyEv.exit.thread, label %10

_ZNK6vectorIPN7datalog13relation_baseELb0EjE5emptyEv.exit.thread: ; preds = %2, %_ZNK6vectorIPN7datalog13relation_baseELb0EjE5emptyEv.exit
  %9 = tail call noundef nonnull align 8 dereferenceable(8) ptr @_ZSt16__ostream_insertIcSt11char_traitsIcEERSt13basic_ostreamIT_T0_ES6_PKS3_l(ptr noundef nonnull align 8 dereferenceable(8) %1, ptr noundef nonnull @.str.2, i64 noundef 3)
  br label %.loopexit

10:                                               ; preds = %_ZNK6vectorIPN7datalog13relation_baseELb0EjE5emptyEv.exit
  %11 = tail call noundef nonnull align 8 dereferenceable(8) ptr @_ZSt16__ostream_insertIcSt11char_traitsIcEERSt13basic_ostreamIT_T0_ES6_PKS3_l(ptr noundef nonnull align 8 dereferenceable(8) %1, ptr noundef nonnull @.str.3, i64 noundef 36)
  br label %12

12:                                               ; preds = %20, %10
  %indvars.iv = phi i64 [ %indvars.iv.next, %20 ], [ 0, %10 ]
  %13 = load ptr, ptr %3, align 8, !tbaa !89
  %14 = icmp eq ptr %13, null
  br i1 %14, label %_ZNK6vectorIPN7datalog13relation_baseELb0EjE4sizeEv.exit, label %15

15:                                               ; preds = %12
  %16 = getelementptr inbounds i8, ptr %13, i64 -4
  %17 = load i32, ptr %16, align 4, !tbaa !39
  %18 = zext i32 %17 to i64
  br label %_ZNK6vectorIPN7datalog13relation_baseELb0EjE4sizeEv.exit

_ZNK6vectorIPN7datalog13relation_baseELb0EjE4sizeEv.exit: ; preds = %12, %15
  %.0.i = phi i64 [ %18, %15 ], [ 0, %12 ]
  %19 = icmp samesign ult i64 %indvars.iv, %.0.i
  br i1 %19, label %20, label %.loopexit

20:                                               ; preds = %_ZNK6vectorIPN7datalog13relation_baseELb0EjE4sizeEv.exit
  %21 = getelementptr inbounds nuw ptr, ptr %13, i64 %indvars.iv
  %22 = load ptr, ptr %21, align 8, !tbaa !92
  %23 = load ptr, ptr %22, align 8, !tbaa !17
  %24 = getelementptr inbounds nuw i8, ptr %23, i64 120
  %25 = load ptr, ptr %24, align 8
  tail call void %25(ptr noundef nonnull align 8 dereferenceable(28) %22, ptr noundef nonnull align 8 dereferenceable(8) %1)
  %indvars.iv.next = add nuw nsw i64 %indvars.iv, 1
  br label %12, !llvm.loop !207

.loopexit:                                        ; preds = %_ZNK6vectorIPN7datalog13relation_baseELb0EjE4sizeEv.exit, %_ZNK6vectorIPN7datalog13relation_baseELb0EjE5emptyEv.exit.thread
  ret void
}